target datalayout = "e-m:e-p270:32:32-p271:32:32-p272:64:64-i64:64-i128:128-f80:128-n8:16:32:64-S128"
target triple = "x86_64-pc-linux-gnu"

%struct.lzma_stream = type { ptr, i64, i64, ptr, i64, i64, ptr, ptr, ptr, ptr, ptr, ptr, i64, i64, i64, i64, i32, i32 }
%struct.archive_write_filter = type { i64, ptr, ptr, ptr, ptr, ptr, ptr, ptr, ptr, ptr, ptr, i32, i32, i32, i32 }
%struct.archive_write = type { %struct.archive, i32, i64, i64, ptr, i64, ptr, ptr, ptr, ptr, ptr, i32, i32, ptr, ptr, ptr, ptr, ptr, ptr, ptr, ptr, ptr, ptr, ptr, ptr, ptr, ptr }
%struct.archive = type { i32, i32, ptr, i32, ptr, i32, i32, ptr, %struct.archive_string, ptr, i32, i32, ptr, ptr, i64, i64, i64, i8, i64 }
%struct.archive_string = type { ptr, i64, i64 }
%struct.private_data = type { i32, i32, %struct.lzma_stream, [2 x %struct.lzma_filter], %struct.lzma_options_lzma, i64, ptr, i64, i64, i32 }
%struct.lzma_filter = type { i64, ptr }
%struct.lzma_options_lzma = type { i32, ptr, i32, i32, i32, i32, i32, i32, i32, i32, i32, i32, i32, i32, i32, i32, i32, i32, i32, i32, i32, i32, ptr, ptr }

@.str.4 = private unnamed_addr constant [30 x i8] c"archive_write_add_filter_lzip\00", align 1
@.str.5 = private unnamed_addr constant [5 x i8] c"lzip\00", align 1
@.str.6 = private unnamed_addr constant [14 x i8] c"Out of memory\00", align 1

; Function Attrs: nounwind uwtable
define internal i32 @common_setup(ptr noundef %0) #0 {
  %2 = alloca i32, align 4
  %3 = alloca ptr, align 8
  %4 = alloca ptr, align 8
  %5 = alloca ptr, align 8
  %6 = alloca i32, align 4
  store ptr %0, ptr %3, align 8, !tbaa !11
  call void @llvm.lifetime.start.p0(i64 8, ptr %4) #11
  call void @llvm.lifetime.start.p0(i64 8, ptr %5) #11
  %7 = load ptr, ptr %3, align 8, !tbaa !11
  %8 = getelementptr inbounds nuw %struct.archive_write_filter, ptr %7, i32 0, i32 1
  %9 = load ptr, ptr %8, align 8, !tbaa !18
  store ptr %9, ptr %5, align 8, !tbaa !19
  %10 = call noalias ptr @calloc(i64 noundef 1, i64 noundef 328) #12
  store ptr %10, ptr %4, align 8, !tbaa !21
  %11 = load ptr, ptr %4, align 8, !tbaa !21
  %12 = icmp eq ptr %11, null
  br i1 %12, label %13, label %16

13:                                               ; preds = %1
  %14 = load ptr, ptr %5, align 8, !tbaa !19
  %15 = getelementptr inbounds nuw %struct.archive_write, ptr %14, i32 0, i32 0
  call void (ptr, i32, ptr, ...) @archive_set_error(ptr noundef %15, i32 noundef 12, ptr noundef @.str.6)
  store i32 -30, ptr %2, align 4
  store i32 1, ptr %6, align 4
  br label %32

16:                                               ; preds = %1
  %17 = load ptr, ptr %4, align 8, !tbaa !21
  %18 = load ptr, ptr %3, align 8, !tbaa !11
  %19 = getelementptr inbounds nuw %struct.archive_write_filter, ptr %18, i32 0, i32 9
  store ptr %17, ptr %19, align 8, !tbaa !23
  %20 = load ptr, ptr %4, align 8, !tbaa !21
  %21 = getelementptr inbounds nuw %struct.private_data, ptr %20, i32 0, i32 0
  store i32 6, ptr %21, align 8, !tbaa !24
  %22 = load ptr, ptr %4, align 8, !tbaa !21
  %23 = getelementptr inbounds nuw %struct.private_data, ptr %22, i32 0, i32 1
  store i32 1, ptr %23, align 4, !tbaa !29
  %24 = load ptr, ptr %3, align 8, !tbaa !11
  %25 = getelementptr inbounds nuw %struct.archive_write_filter, ptr %24, i32 0, i32 4
  store ptr @archive_compressor_xz_open, ptr %25, align 8, !tbaa !30
  %26 = load ptr, ptr %3, align 8, !tbaa !11
  %27 = getelementptr inbounds nuw %struct.archive_write_filter, ptr %26, i32 0, i32 7
  store ptr @archive_compressor_xz_close, ptr %27, align 8, !tbaa !31
  %28 = load ptr, ptr %3, align 8, !tbaa !11
  %29 = getelementptr inbounds nuw %struct.archive_write_filter, ptr %28, i32 0, i32 8
  store ptr @archive_compressor_xz_free, ptr %29, align 8, !tbaa !32
  %30 = load ptr, ptr %3, align 8, !tbaa !11
  %31 = getelementptr inbounds nuw %struct.archive_write_filter, ptr %30, i32 0, i32 3
  store ptr @archive_compressor_xz_options, ptr %31, align 8, !tbaa !33
  store i32 0, ptr %2, align 4
  store i32 1, ptr %6, align 4
  br label %32

32:                                               ; preds = %16, %13
  call void @llvm.lifetime.end.p0(i64 8, ptr %5) #11
  call void @llvm.lifetime.end.p0(i64 8, ptr %4) #11
  %33 = load i32, ptr %2, align 4
  ret i32 %33
}

; Function Attrs: nounwind uwtable
define dso_local i32 @archive_write_add_filter_lzip(ptr noundef %0) #0 {
  %2 = alloca i32, align 4
  %3 = alloca ptr, align 8
  %4 = alloca ptr, align 8
  %5 = alloca i32, align 4
  %6 = alloca i32, align 4
  %7 = alloca i32, align 4
  store ptr %0, ptr %3, align 8, !tbaa !4
  call void @llvm.lifetime.start.p0(i64 8, ptr %4) #11
  call void @llvm.lifetime.start.p0(i64 4, ptr %5) #11
  br label %8

8:                                                ; preds = %1
  call void @llvm.lifetime.start.p0(i64 4, ptr %6) #11
  %9 = load ptr, ptr %3, align 8, !tbaa !4
  %10 = call i32 @__archive_check_magic(ptr noundef %9, i32 noundef -1329217314, i32 noundef 1, ptr noundef @.str.4)
  store i32 %10, ptr %6, align 4, !tbaa !9
  %11 = load i32, ptr %6, align 4, !tbaa !9
  %12 = icmp eq i32 %11, -30
  br i1 %12, label %13, label %14

13:                                               ; preds = %8
  store i32 -30, ptr %2, align 4
  store i32 1, ptr %7, align 4
  br label %15

14:                                               ; preds = %8
  store i32 0, ptr %7, align 4
  br label %15

15:                                               ; preds = %14, %13
  call void @llvm.lifetime.end.p0(i64 4, ptr %6) #11
  %16 = load i32, ptr %7, align 4
  switch i32 %16, label %33 [
    i32 0, label %17
  ]

17:                                               ; preds = %15
  br label %18

18:                                               ; preds = %17
  br label %19

19:                                               ; preds = %18
  %20 = load ptr, ptr %3, align 8, !tbaa !4
  %21 = call ptr @__archive_write_allocate_filter(ptr noundef %20)
  store ptr %21, ptr %4, align 8, !tbaa !11
  %22 = load ptr, ptr %4, align 8, !tbaa !11
  %23 = call i32 @common_setup(ptr noundef %22)
  store i32 %23, ptr %5, align 4, !tbaa !9
  %24 = load i32, ptr %5, align 4, !tbaa !9
  %25 = icmp eq i32 %24, 0
  br i1 %25, label %26, label %31

26:                                               ; preds = %19
  %27 = load ptr, ptr %4, align 8, !tbaa !11
  %28 = getelementptr inbounds nuw %struct.archive_write_filter, ptr %27, i32 0, i32 11
  store i32 9, ptr %28, align 8, !tbaa !13
  %29 = load ptr, ptr %4, align 8, !tbaa !11
  %30 = getelementptr inbounds nuw %struct.archive_write_filter, ptr %29, i32 0, i32 10
  store ptr @.str.5, ptr %30, align 8, !tbaa !17
  br label %31

31:                                               ; preds = %26, %19
  %32 = load i32, ptr %5, align 4, !tbaa !9
  store i32 %32, ptr %2, align 4
  store i32 1, ptr %7, align 4
  br label %33

33:                                               ; preds = %31, %15
  call void @llvm.lifetime.end.p0(i64 4, ptr %5) #11
  call void @llvm.lifetime.end.p0(i64 8, ptr %4) #11
  %34 = load i32, ptr %2, align 4
  ret i32 %34
}

; Function Attrs: nounwind uwtable
define dso_local i32 @archive_write_set_compression_lzip(ptr noundef %0) #0 {
  %2 = alloca ptr, align 8
  store ptr %0, ptr %2, align 8, !tbaa !4
  %3 = load ptr, ptr %2, align 8, !tbaa !4
  call void @__archive_write_filters_free(ptr noundef %3)
  %4 = load ptr, ptr %2, align 8, !tbaa !4
  %5 = call i32 @archive_write_add_filter_lzip(ptr noundef %4)
  ret i32 %5
}